; Function Attrs: null_pointer_is_valid sspstrong uwtable
define internal i32 @dissect_nbap_CRNC_CommunicationContextID(ptr noundef %0, i32 noundef %1, ptr noundef %2, ptr noundef %3, i32 noundef %4) #0 {
  %6 = alloca i32, align 4
  call void @llvm.lifetime.start.p0(i64 4, ptr nonnull %6) #9
  %7 = call i32 @dissect_per_constrained_integer(ptr noundef %0, i32 noundef %1, ptr noundef %2, ptr noundef %3, i32 noundef %4, i32 noundef 0, i32 noundef 1048575, ptr noundef nonnull %6, i1 noundef zeroext false)
  %8 = load i32, ptr %6, align 4
  %9 = getelementptr inbounds nuw i8, ptr %2, i64 16
  %10 = load ptr, ptr %9, align 8
  %11 = getelementptr inbounds nuw i8, ptr %10, i64 408
  %12 = load ptr, ptr %11, align 8
  %13 = load i32, ptr @proto_nbap, align 4
  %14 = call ptr @p_get_proto_data(ptr noundef %12, ptr noundef %10, i32 noundef %13, i32 noundef 0)
  %15 = icmp eq ptr %14, null
  br i1 %15, label %16, label %nbap_get_private_data.exit

16:                                               ; preds = %5
  %17 = load ptr, ptr %11, align 8
  %18 = call noalias dereferenceable_or_null(268056) ptr @wmem_alloc0(ptr noundef %17, i64 noundef 268056) #10
  %19 = load ptr, ptr %11, align 8
  %20 = load i32, ptr @proto_nbap, align 4
  call void @p_add_proto_data(ptr noundef %19, ptr noundef %10, i32 noundef %20, i32 noundef 0, ptr noundef %18)
  %21 = getelementptr inbounds nuw i8, ptr %18, i64 68
  store i32 3, ptr %21, align 4
  %22 = getelementptr inbounds nuw i8, ptr %18, i64 108
  store i8 0, ptr %22, align 4
  %23 = getelementptr inbounds nuw i8, ptr %18, i64 12
  store i32 65535, ptr %23, align 4
  %24 = getelementptr inbounds nuw i8, ptr %18, i64 40
  store i32 65535, ptr %24, align 8
  %25 = getelementptr inbounds nuw i8, ptr %18, i64 109
  store i8 2, ptr %25, align 1
  %26 = getelementptr i8, ptr %18, i64 267508
  br label %27

27:                                               ; preds = %27, %16
  %indvars.iv.i = phi i64 [ 0, %16 ], [ %indvars.iv.next.i, %27 ]
  %.idx.i = mul nuw nsw i64 %indvars.iv.i, 40
  %28 = getelementptr i8, ptr %26, i64 %.idx.i
  store i8 1, ptr %28, align 4
  %indvars.iv.next.i = add nuw nsw i64 %indvars.iv.i, 1
  %exitcond.not.i = icmp eq i64 %indvars.iv.next.i, 8
  br i1 %exitcond.not.i, label %nbap_get_private_data.exit, label %27, !llvm.loop !9

nbap_get_private_data.exit:                       ; preds = %27, %5
  %.0.i = phi ptr [ %14, %5 ], [ %18, %27 ]
  %29 = getelementptr inbounds nuw i8, ptr %.0.i, i64 24
  store i32 %8, ptr %29, align 8
  %30 = load ptr, ptr %9, align 8
  %31 = getelementptr inbounds nuw i8, ptr %30, i64 408
  %32 = load ptr, ptr %31, align 8
  %33 = load i32, ptr @proto_nbap, align 4
  %34 = call ptr @p_get_proto_data(ptr noundef %32, ptr noundef %30, i32 noundef %33, i32 noundef 0)
  %35 = icmp eq ptr %34, null
  br i1 %35, label %36, label %nbap_get_private_data.exit12

36:                                               ; preds = %nbap_get_private_data.exit
  %37 = load ptr, ptr %31, align 8
  %38 = call noalias dereferenceable_or_null(268056) ptr @wmem_alloc0(ptr noundef %37, i64 noundef 268056) #10
  %39 = load ptr, ptr %31, align 8
  %40 = load i32, ptr @proto_nbap, align 4
  call void @p_add_proto_data(ptr noundef %39, ptr noundef %30, i32 noundef %40, i32 noundef 0, ptr noundef %38)
  %41 = getelementptr inbounds nuw i8, ptr %38, i64 68
  store i32 3, ptr %41, align 4
  %42 = getelementptr inbounds nuw i8, ptr %38, i64 108
  store i8 0, ptr %42, align 4
  %43 = getelementptr inbounds nuw i8, ptr %38, i64 12
  store i32 65535, ptr %43, align 4
  %44 = getelementptr inbounds nuw i8, ptr %38, i64 40
  store i32 65535, ptr %44, align 8
  %45 = getelementptr inbounds nuw i8, ptr %38, i64 109
  store i8 2, ptr %45, align 1
  %46 = getelementptr i8, ptr %38, i64 267508
  br label %47

47:                                               ; preds = %47, %36
  %indvars.iv.i8 = phi i64 [ 0, %36 ], [ %indvars.iv.next.i10, %47 ]
  %.idx.i9 = mul nuw nsw i64 %indvars.iv.i8, 40
  %48 = getelementptr i8, ptr %46, i64 %.idx.i9
  store i8 1, ptr %48, align 4
  %indvars.iv.next.i10 = add nuw nsw i64 %indvars.iv.i8, 1
  %exitcond.not.i11 = icmp eq i64 %indvars.iv.next.i10, 8
  br i1 %exitcond.not.i11, label %nbap_get_private_data.exit12, label %47, !llvm.loop !9

nbap_get_private_data.exit12:                     ; preds = %47, %nbap_get_private_data.exit
  %.0.i7 = phi ptr [ %34, %nbap_get_private_data.exit ], [ %38, %47 ]
  %49 = getelementptr inbounds nuw i8, ptr %.0.i7, i64 108
  store i8 1, ptr %49, align 4
  call void @llvm.lifetime.end.p0(i64 4, ptr nonnull %6) #9
  ret i32 %7
}